target datalayout = "e-m:e-p270:32:32-p271:32:32-p272:64:64-i64:64-i128:128-f80:128-n8:16:32:64-S128"
target triple = "x86_64-pc-linux-gnu"

%struct.expert_field = type { i32, i32 }
%struct._packet_info = type { ptr, ptr, i32, i32, %struct.nstime_t, %struct.nstime_t, %struct.nstime_t, i8, ptr, ptr, ptr, ptr, %struct._address, %struct._address, %struct._address, %struct._address, %struct._address, %struct._address, i32, ptr, i8, [3 x i8], %struct.anon, i32, i32, i32, i32, ptr, i8, ptr, ptr, i16, i16, i32, i32, i16, i32, i32, ptr, ptr, ptr, i8, i8, i16, i16, i16, i32, i16, i16, ptr, ptr, ptr, ptr, ptr, i32, i32 }
%struct.nstime_t = type { i64, i32 }
%struct._address = type { i32, i32, ptr, ptr }
%struct.anon = type { i8, [3 x i8] }

@hf_cemi_pid = internal global i32 0, align 4
@ei_knxip_error = external global %struct.expert_field, align 4
@.str.341 = private unnamed_addr constant [6 x i8] c" P=%u\00", align 1
@.str.342 = private unnamed_addr constant [9 x i8] c", PID=%u\00", align 1
@.str.343 = private unnamed_addr constant [6 x i8] c" = %s\00", align 1
@.str.344 = private unnamed_addr constant [31 x i8] c"? Property ID: expected 1 byte\00", align 1
@pid7_vals = internal constant [3 x { i32, [4 x i8], ptr }] [{ i32, [4 x i8], ptr } { i32 51, [4 x i8] zeroinitializer, ptr @.str.431 }, { i32, [4 x i8], ptr } { i32 52, [4 x i8] zeroinitializer, ptr @.str.432 }, { i32, [4 x i8], ptr } zeroinitializer], align 16
@pid9_vals = internal constant [3 x { i32, [4 x i8], ptr }] [{ i32, [4 x i8], ptr } { i32 51, [4 x i8] zeroinitializer, ptr @.str.446 }, { i32, [4 x i8], ptr } { i32 52, [4 x i8] zeroinitializer, ptr @.str.447 }, { i32, [4 x i8], ptr } zeroinitializer], align 16

; Function Attrs: null_pointer_is_valid sspstrong uwtable
define internal ptr @get_pid_name(i32 noundef %0, i32 noundef %1) #0 {
  %3 = alloca ptr, align 8
  %4 = alloca i32, align 4
  %5 = alloca i32, align 4
  %6 = alloca ptr, align 8
  %7 = alloca i32, align 4
  store i32 %0, ptr %4, align 4
  store i32 %1, ptr %5, align 4
  %8 = load i32, ptr %5, align 4
  %9 = icmp sle i32 %8, 50
  br i1 %9, label %10, label %13

10:                                               ; preds = %2
  %11 = load i32, ptr %5, align 4
  %12 = call ptr @try_val_to_str(i32 noundef %11, ptr noundef @pid_vals)
  store ptr %12, ptr %3, align 8
  br label %34

13:                                               ; preds = %2
  call void @llvm.lifetime.start.p0(i64 8, ptr %6) #9
  store ptr null, ptr %6, align 8
  %14 = load i32, ptr %4, align 4
  switch i32 %14, label %23 [
    i32 0, label %15
    i32 1, label %16
    i32 6, label %17
    i32 7, label %18
    i32 8, label %19
    i32 9, label %20
    i32 11, label %21
    i32 17, label %22
  ]

15:                                               ; preds = %13
  store ptr @pid0_vals, ptr %6, align 8
  br label %23

16:                                               ; preds = %13
  store ptr @pid1_vals, ptr %6, align 8
  br label %23

17:                                               ; preds = %13
  store ptr @pid6_vals, ptr %6, align 8
  br label %23

18:                                               ; preds = %13
  store ptr @pid7_vals, ptr %6, align 8
  br label %23

19:                                               ; preds = %13
  store ptr @pid8_vals, ptr %6, align 8
  br label %23

20:                                               ; preds = %13
  store ptr @pid9_vals, ptr %6, align 8
  br label %23

21:                                               ; preds = %13
  store ptr @pid11_vals, ptr %6, align 8
  br label %23

22:                                               ; preds = %13
  store ptr @pid17_vals, ptr %6, align 8
  br label %23

23:                                               ; preds = %13, %22, %21, %20, %19, %18, %17, %16, %15
  %24 = load ptr, ptr %6, align 8
  %25 = icmp ne ptr %24, null
  br i1 %25, label %26, label %30

26:                                               ; preds = %23
  %27 = load i32, ptr %5, align 4
  %28 = load ptr, ptr %6, align 8
  %29 = call ptr @try_val_to_str(i32 noundef %27, ptr noundef %28)
  store ptr %29, ptr %3, align 8
  store i32 1, ptr %7, align 4
  br label %31

30:                                               ; preds = %23
  store i32 0, ptr %7, align 4
  br label %31

31:                                               ; preds = %30, %26
  call void @llvm.lifetime.end.p0(i64 8, ptr %6) #9
  %32 = load i32, ptr %7, align 4
  switch i32 %32, label %36 [
    i32 0, label %33
    i32 1, label %34
  ]

33:                                               ; preds = %31
  store ptr null, ptr %3, align 8
  br label %34

34:                                               ; preds = %33, %31, %10
  %35 = load ptr, ptr %3, align 8
  ret ptr %35

36:                                               ; preds = %31
  unreachable
}

; Function Attrs: null_pointer_is_valid sspstrong uwtable
define internal zeroext i8 @dissect_pid(ptr noundef %0, ptr noundef %1, ptr noundef %2, ptr noundef %3, ptr noundef %4, i32 noundef %5, i32 noundef %6, i8 noundef zeroext %7, ptr noundef %8) #0 {
  %10 = alloca i8, align 1
  %11 = alloca ptr, align 8
  %12 = alloca ptr, align 8
  %13 = alloca ptr, align 8
  %14 = alloca ptr, align 8
  %15 = alloca ptr, align 8
  %16 = alloca i32, align 4
  %17 = alloca i32, align 4
  %18 = alloca i8, align 1
  %19 = alloca ptr, align 8
  %20 = alloca i32, align 4
  %21 = alloca i8, align 1
  %22 = alloca ptr, align 8
  %23 = alloca ptr, align 8
  %24 = alloca i32, align 4
  store ptr %0, ptr %11, align 8
  store ptr %1, ptr %12, align 8
  store ptr %2, ptr %13, align 8
  store ptr %3, ptr %14, align 8
  store ptr %4, ptr %15, align 8
  store i32 %5, ptr %16, align 4
  store i32 %6, ptr %17, align 4
  store i8 %7, ptr %18, align 1
  store ptr %8, ptr %19, align 8
  call void @llvm.lifetime.start.p0(i64 4, ptr %20) #9
  %25 = load ptr, ptr %15, align 8
  %26 = load i32, ptr %25, align 4
  store i32 %26, ptr %20, align 4
  %27 = load i32, ptr %20, align 4
  %28 = load i32, ptr %16, align 4
  %29 = icmp slt i32 %27, %28
  br i1 %29, label %30, label %75

30:                                               ; preds = %9
  call void @llvm.lifetime.start.p0(i64 1, ptr %21) #9
  %31 = load ptr, ptr %11, align 8
  %32 = load i32, ptr %20, align 4
  %33 = call zeroext i8 @tvb_get_uint8(ptr noundef %31, i32 noundef %32)
  store i8 %33, ptr %21, align 1
  call void @llvm.lifetime.start.p0(i64 8, ptr %22) #9
  %34 = load ptr, ptr %12, align 8
  %35 = getelementptr inbounds nuw %struct._packet_info, ptr %34, i32 0, i32 1
  %36 = load ptr, ptr %35, align 8
  store ptr %36, ptr %22, align 8
  call void @llvm.lifetime.start.p0(i64 8, ptr %23) #9
  %37 = load i8, ptr %21, align 1
  %38 = zext i8 %37 to i32
  %39 = icmp ne i32 %38, 0
  br i1 %39, label %44, label %40

40:                                               ; preds = %30
  %41 = load i8, ptr %18, align 1
  %42 = zext i8 %41 to i32
  %43 = icmp ne i32 %42, 0
  br i1 %43, label %44, label %51

44:                                               ; preds = %40, %30
  %45 = load ptr, ptr %22, align 8
  %46 = load i8, ptr %21, align 1
  %47 = zext i8 %46 to i32
  call void (ptr, i32, ptr, ...) @col_append_fstr(ptr noundef %45, i32 noundef 25, ptr noundef @.str.341, i32 noundef %47)
  %48 = load ptr, ptr %13, align 8
  %49 = load i8, ptr %21, align 1
  %50 = zext i8 %49 to i32
  call void (ptr, ptr, ...) @proto_item_append_text(ptr noundef %48, ptr noundef @.str.342, i32 noundef %50)
  br label %51

51:                                               ; preds = %44, %40
  %52 = load ptr, ptr %14, align 8
  %53 = icmp ne ptr %52, null
  br i1 %53, label %54, label %70

54:                                               ; preds = %51
  %55 = load ptr, ptr %14, align 8
  %56 = load i32, ptr @hf_cemi_pid, align 4
  %57 = load ptr, ptr %11, align 8
  %58 = load i32, ptr %20, align 4
  %59 = call ptr @proto_tree_add_item(ptr noundef %55, i32 noundef %56, ptr noundef %57, i32 noundef %58, i32 noundef 1, i32 noundef 0)
  store ptr %59, ptr %13, align 8
  %60 = load i32, ptr %17, align 4
  %61 = load i8, ptr %21, align 1
  %62 = zext i8 %61 to i32
  %63 = call ptr @get_pid_name(i32 noundef %60, i32 noundef %62)
  store ptr %63, ptr %23, align 8
  %64 = load ptr, ptr %23, align 8
  %65 = icmp ne ptr %64, null
  br i1 %65, label %66, label %69

66:                                               ; preds = %54
  %67 = load ptr, ptr %13, align 8
  %68 = load ptr, ptr %23, align 8
  call void (ptr, ptr, ...) @proto_item_append_text(ptr noundef %67, ptr noundef @.str.343, ptr noundef %68)
  br label %69

69:                                               ; preds = %66, %54
  br label %70

70:                                               ; preds = %69, %51
  %71 = load i32, ptr %20, align 4
  %72 = add i32 %71, 1
  store i32 %72, ptr %20, align 4
  %73 = load ptr, ptr %15, align 8
  store i32 %72, ptr %73, align 4
  %74 = load i8, ptr %21, align 1
  store i8 %74, ptr %10, align 1
  store i32 1, ptr %24, align 4
  call void @llvm.lifetime.end.p0(i64 8, ptr %23) #9
  call void @llvm.lifetime.end.p0(i64 8, ptr %22) #9
  call void @llvm.lifetime.end.p0(i64 1, ptr %21) #9
  br label %86

75:                                               ; preds = %9
  %76 = load ptr, ptr %14, align 8
  %77 = load ptr, ptr %12, align 8
  %78 = load ptr, ptr %11, align 8
  %79 = load i32, ptr %20, align 4
  %80 = call ptr (ptr, ptr, ptr, ptr, i32, i32, ptr, ...) @proto_tree_add_expert_format(ptr noundef %76, ptr noundef %77, ptr noundef @ei_knxip_error, ptr noundef %78, i32 noundef %79, i32 noundef 0, ptr noundef @.str.344)
  %81 = load ptr, ptr %19, align 8
  %82 = icmp ne ptr %81, null
  br i1 %82, label %83, label %85

83:                                               ; preds = %75
  %84 = load ptr, ptr %19, align 8
  store i8 1, ptr %84, align 1
  br label %85

85:                                               ; preds = %83, %75
  store i8 0, ptr %10, align 1
  store i32 1, ptr %24, align 4
  br label %86

86:                                               ; preds = %85, %70
  call void @llvm.lifetime.end.p0(i64 4, ptr %20) #9
  %87 = load i8, ptr %10, align 1
  ret i8 %87
}