; Function Attrs: null_pointer_is_valid sspstrong uwtable
define internal fastcc zeroext i8 @dissect_pid(ptr noundef %0, ptr noundef %1, ptr noundef %2, ptr noundef %3, ptr noundef captures(none) %4, i32 noundef range(i32 1, -2147483648) %5, i32 noundef range(i32 -1, 65536) %6, i8 noundef zeroext %7, ptr noundef writeonly captures(address_is_null) %8) unnamed_addr #0 {
  %10 = load i32, ptr %4, align 4
  %11 = icmp slt i32 %10, %5
  br i1 %11, label %12, label %30

12:                                               ; preds = %9
  %13 = tail call zeroext i8 @tvb_get_uint8(ptr noundef %0, i32 noundef %10)
  %14 = zext i8 %13 to i32
  %15 = or i8 %13, %7
  %or.cond.not = icmp eq i8 %15, 0
  br i1 %or.cond.not, label %19, label %16

16:                                               ; preds = %12
  %17 = getelementptr inbounds nuw i8, ptr %1, i64 8
  %18 = load ptr, ptr %17, align 8
  tail call void (ptr, i32, ptr, ...) @col_append_fstr(ptr noundef %18, i32 noundef 25, ptr noundef nonnull @.str.341, i32 noundef %14)
  tail call void (ptr, ptr, ...) @proto_item_append_text(ptr noundef %2, ptr noundef nonnull @.str.342, i32 noundef %14)
  br label %19

19:                                               ; preds = %12, %16
  %.not36 = icmp eq ptr %3, null
  br i1 %.not36, label %get_pid_name.exit.thread, label %20

20:                                               ; preds = %19
  %21 = load i32, ptr @hf_cemi_pid, align 4
  %22 = tail call ptr @proto_tree_add_item(ptr noundef nonnull %3, i32 noundef %21, ptr noundef %0, i32 noundef %10, i32 noundef 1, i32 noundef 0)
  %23 = icmp ult i8 %13, 51
  br i1 %23, label %get_pid_name.exit, label %24

24:                                               ; preds = %20
  %25 = icmp ult i32 %6, 18
  br i1 %25, label %switch.hole_check, label %get_pid_name.exit.thread

switch.hole_check:                                ; preds = %24
  %switch.shifted = lshr i32 134083, %6
  %switch.lobit = trunc i32 %switch.shifted to i1
  br i1 %switch.lobit, label %switch.lookup, label %get_pid_name.exit.thread

switch.lookup:                                    ; preds = %switch.hole_check
  %26 = zext nneg i32 %6 to i64
  %switch.gep = getelementptr inbounds nuw [18 x ptr], ptr @switch.table.dissect_pid_ext, i64 0, i64 %26
  %switch.load = load ptr, ptr %switch.gep, align 8
  br label %get_pid_name.exit

get_pid_name.exit:                                ; preds = %switch.lookup, %20
  %.07.ph.sink.i = phi ptr [ @pid_vals, %20 ], [ %switch.load, %switch.lookup ]
  %27 = tail call ptr @try_val_to_str(i32 noundef range(i32 0, 4096) %14, ptr noundef nonnull %.07.ph.sink.i)
  %.not37 = icmp eq ptr %27, null
  br i1 %.not37, label %get_pid_name.exit.thread, label %28

28:                                               ; preds = %get_pid_name.exit
  tail call void (ptr, ptr, ...) @proto_item_append_text(ptr noundef %22, ptr noundef nonnull @.str.343, ptr noundef nonnull %27)
  br label %get_pid_name.exit.thread

get_pid_name.exit.thread:                         ; preds = %switch.hole_check, %24, %get_pid_name.exit, %28, %19
  %29 = add nsw i32 %10, 1
  store i32 %29, ptr %4, align 4
  br label %33

30:                                               ; preds = %9
  %31 = tail call ptr (ptr, ptr, ptr, ptr, i32, i32, ptr, ...) @proto_tree_add_expert_format(ptr noundef %3, ptr noundef %1, ptr noundef nonnull @ei_knxip_error, ptr noundef %0, i32 noundef %10, i32 noundef 0, ptr noundef nonnull @.str.344)
  %.not = icmp eq ptr %8, null
  br i1 %.not, label %33, label %32

32:                                               ; preds = %30
  store i8 1, ptr %8, align 1
  br label %33

33:                                               ; preds = %30, %32, %get_pid_name.exit.thread
  %.0 = phi i8 [ %13, %get_pid_name.exit.thread ], [ 0, %32 ], [ 0, %30 ]
  ret i8 %.0
}